target datalayout = "e-m:e-p270:32:32-p271:32:32-p272:64:64-i64:64-i128:128-f80:128-n8:16:32:64-S128"
target triple = "x86_64-pc-linux-gnu"

%struct.Mfs_Man_t_ = type { ptr, ptr, ptr, ptr, i32, ptr, ptr, ptr, ptr, ptr, ptr, ptr, ptr, i32, i32, i32, i32, ptr, ptr, i32, i32, i32, ptr, ptr, ptr, ptr, ptr, ptr, ptr, i32, i32, ptr, i32, i32, i32, [128 x i32], i32, i32, i32, i32, i32, i32, i32, i32, i32, i32, i32, i32, i32, i32, double, i32, i32, i32, i32, float, float, i64, i64, i64, i64, i64, i64, i64, i64 }
%struct.Aig_Man_t_ = type { ptr, ptr, ptr, ptr, ptr, ptr, ptr, %struct.Aig_Obj_t_, i32, i32, i32, i32, i32, i32, [7 x i32], i32, ptr, i32, ptr, i32, ptr, i32, i32, i32, ptr, i32, i32, i32, i32, i32, ptr, ptr, i32, ptr, ptr, i32, ptr, ptr, i32, i32, i32, ptr, ptr, ptr, ptr, ptr, ptr, ptr, ptr, ptr, ptr, ptr, ptr, ptr, ptr, i32, ptr, ptr, ptr, ptr, i32, i64, i64, i64, ptr, ptr }
%struct.Aig_Obj_t_ = type { %union.anon, ptr, ptr, i64, i32, i32, %union.anon.0 }
%union.anon = type { ptr }
%union.anon.0 = type { ptr }
%struct.Cnf_Dat_t_ = type { ptr, i32, i32, i32, ptr, ptr, ptr, ptr, ptr, ptr }
%struct.Vec_Ptr_t_ = type { i32, i32, ptr }

; Function Attrs: inlinehint nounwind uwtable
define internal ptr @Vec_PtrEntry(ptr noundef %0, i32 noundef %1) #3 {
  %3 = alloca ptr, align 8
  %4 = alloca i32, align 4
  store ptr %0, ptr %3, align 8, !tbaa !80
  store i32 %1, ptr %4, align 4, !tbaa !38
  %5 = load ptr, ptr %3, align 8, !tbaa !80
  %6 = getelementptr inbounds nuw %struct.Vec_Ptr_t_, ptr %5, i32 0, i32 2
  %7 = load ptr, ptr %6, align 8, !tbaa !83
  %8 = load i32, ptr %4, align 4, !tbaa !38
  %9 = sext i32 %8 to i64
  %10 = getelementptr inbounds ptr, ptr %7, i64 %9
  %11 = load ptr, ptr %10, align 8, !tbaa !84
  ret ptr %11
}

; Function Attrs: inlinehint nounwind uwtable
define internal i32 @toLitCond(i32 noundef %0, i32 noundef %1) #3 {
  %3 = alloca i32, align 4
  %4 = alloca i32, align 4
  store i32 %0, ptr %3, align 4, !tbaa !38
  store i32 %1, ptr %4, align 4, !tbaa !38
  %5 = load i32, ptr %3, align 4, !tbaa !38
  %6 = load i32, ptr %3, align 4, !tbaa !38
  %7 = add nsw i32 %5, %6
  %8 = load i32, ptr %4, align 4, !tbaa !38
  %9 = icmp ne i32 %8, 0
  %10 = zext i1 %9 to i32
  %11 = add nsw i32 %7, %10
  ret i32 %11
}

; Function Attrs: inlinehint nounwind uwtable
define internal ptr @Aig_ManCi(ptr noundef %0, i32 noundef %1) #3 {
  %3 = alloca ptr, align 8
  %4 = alloca i32, align 4
  store ptr %0, ptr %3, align 8, !tbaa !78
  store i32 %1, ptr %4, align 4, !tbaa !38
  %5 = load ptr, ptr %3, align 8, !tbaa !78
  %6 = getelementptr inbounds nuw %struct.Aig_Man_t_, ptr %5, i32 0, i32 2
  %7 = load ptr, ptr %6, align 8, !tbaa !86
  %8 = load i32, ptr %4, align 4, !tbaa !38
  %9 = call ptr @Vec_PtrEntry(ptr noundef %7, i32 noundef %8)
  ret ptr %9
}

; Function Attrs: inlinehint nounwind uwtable
define internal i32 @Vec_PtrSize(ptr noundef %0) #3 {
  %2 = alloca ptr, align 8
  store ptr %0, ptr %2, align 8, !tbaa !80
  %3 = load ptr, ptr %2, align 8, !tbaa !80
  %4 = getelementptr inbounds nuw %struct.Vec_Ptr_t_, ptr %3, i32 0, i32 1
  %5 = load i32, ptr %4, align 4, !tbaa !81
  ret i32 %5
}

; Function Attrs: nounwind uwtable
define i32 @Abc_NtkAddOneHotness(ptr noundef %0) #0 {
  %2 = alloca i32, align 4
  %3 = alloca ptr, align 8
  %4 = alloca ptr, align 8
  %5 = alloca ptr, align 8
  %6 = alloca i32, align 4
  %7 = alloca i32, align 4
  %8 = alloca [2 x i32], align 4
  %9 = alloca i32, align 4
  store ptr %0, ptr %3, align 8, !tbaa !3
  call void @llvm.lifetime.start.p0(i64 8, ptr %4) #7
  call void @llvm.lifetime.start.p0(i64 8, ptr %5) #7
  call void @llvm.lifetime.start.p0(i64 4, ptr %6) #7
  call void @llvm.lifetime.start.p0(i64 4, ptr %7) #7
  call void @llvm.lifetime.start.p0(i64 8, ptr %8) #7
  store i32 0, ptr %6, align 4, !tbaa !38
  br label %10

10:                                               ; preds = %87, %1
  %11 = load i32, ptr %6, align 4, !tbaa !38
  %12 = load ptr, ptr %3, align 8, !tbaa !3
  %13 = getelementptr inbounds nuw %struct.Mfs_Man_t_, ptr %12, i32 0, i32 22
  %14 = load ptr, ptr %13, align 8, !tbaa !52
  %15 = getelementptr inbounds nuw %struct.Aig_Man_t_, ptr %14, i32 0, i32 2
  %16 = load ptr, ptr %15, align 8, !tbaa !86
  %17 = call i32 @Vec_PtrSize(ptr noundef %16)
  %18 = icmp slt i32 %11, %17
  br i1 %18, label %19, label %90

19:                                               ; preds = %10
  %20 = load i32, ptr %6, align 4, !tbaa !38
  %21 = add nsw i32 %20, 1
  store i32 %21, ptr %7, align 4, !tbaa !38
  br label %22

22:                                               ; preds = %83, %19
  %23 = load i32, ptr %7, align 4, !tbaa !38
  %24 = load ptr, ptr %3, align 8, !tbaa !3
  %25 = getelementptr inbounds nuw %struct.Mfs_Man_t_, ptr %24, i32 0, i32 22
  %26 = load ptr, ptr %25, align 8, !tbaa !52
  %27 = getelementptr inbounds nuw %struct.Aig_Man_t_, ptr %26, i32 0, i32 2
  %28 = load ptr, ptr %27, align 8, !tbaa !86
  %29 = call i32 @Vec_PtrSize(ptr noundef %28)
  %30 = icmp slt i32 %23, %29
  br i1 %30, label %31, label %86

31:                                               ; preds = %22
  %32 = load ptr, ptr %3, align 8, !tbaa !3
  %33 = getelementptr inbounds nuw %struct.Mfs_Man_t_, ptr %32, i32 0, i32 22
  %34 = load ptr, ptr %33, align 8, !tbaa !52
  %35 = load i32, ptr %6, align 4, !tbaa !38
  %36 = call ptr @Aig_ManCi(ptr noundef %34, i32 noundef %35)
  store ptr %36, ptr %4, align 8, !tbaa !60
  %37 = load ptr, ptr %3, align 8, !tbaa !3
  %38 = getelementptr inbounds nuw %struct.Mfs_Man_t_, ptr %37, i32 0, i32 22
  %39 = load ptr, ptr %38, align 8, !tbaa !52
  %40 = load i32, ptr %7, align 4, !tbaa !38
  %41 = call ptr @Aig_ManCi(ptr noundef %39, i32 noundef %40)
  store ptr %41, ptr %5, align 8, !tbaa !60
  %42 = load ptr, ptr %3, align 8, !tbaa !3
  %43 = getelementptr inbounds nuw %struct.Mfs_Man_t_, ptr %42, i32 0, i32 23
  %44 = load ptr, ptr %43, align 8, !tbaa !61
  %45 = getelementptr inbounds nuw %struct.Cnf_Dat_t_, ptr %44, i32 0, i32 5
  %46 = load ptr, ptr %45, align 8, !tbaa !62
  %47 = load ptr, ptr %4, align 8, !tbaa !60
  %48 = getelementptr inbounds nuw %struct.Aig_Obj_t_, ptr %47, i32 0, i32 5
  %49 = load i32, ptr %48, align 4, !tbaa !64
  %50 = sext i32 %49 to i64
  %51 = getelementptr inbounds i32, ptr %46, i64 %50
  %52 = load i32, ptr %51, align 4, !tbaa !38
  %53 = call i32 @toLitCond(i32 noundef %52, i32 noundef 1)
  %54 = getelementptr inbounds [2 x i32], ptr %8, i64 0, i64 0
  store i32 %53, ptr %54, align 4, !tbaa !38
  %55 = load ptr, ptr %3, align 8, !tbaa !3
  %56 = getelementptr inbounds nuw %struct.Mfs_Man_t_, ptr %55, i32 0, i32 23
  %57 = load ptr, ptr %56, align 8, !tbaa !61
  %58 = getelementptr inbounds nuw %struct.Cnf_Dat_t_, ptr %57, i32 0, i32 5
  %59 = load ptr, ptr %58, align 8, !tbaa !62
  %60 = load ptr, ptr %5, align 8, !tbaa !60
  %61 = getelementptr inbounds nuw %struct.Aig_Obj_t_, ptr %60, i32 0, i32 5
  %62 = load i32, ptr %61, align 4, !tbaa !64
  %63 = sext i32 %62 to i64
  %64 = getelementptr inbounds i32, ptr %59, i64 %63
  %65 = load i32, ptr %64, align 4, !tbaa !38
  %66 = call i32 @toLitCond(i32 noundef %65, i32 noundef 1)
  %67 = getelementptr inbounds [2 x i32], ptr %8, i64 0, i64 1
  store i32 %66, ptr %67, align 4, !tbaa !38
  %68 = load ptr, ptr %3, align 8, !tbaa !3
  %69 = getelementptr inbounds nuw %struct.Mfs_Man_t_, ptr %68, i32 0, i32 24
  %70 = load ptr, ptr %69, align 8, !tbaa !24
  %71 = getelementptr inbounds [2 x i32], ptr %8, i64 0, i64 0
  %72 = getelementptr inbounds [2 x i32], ptr %8, i64 0, i64 0
  %73 = getelementptr inbounds i32, ptr %72, i64 2
  %74 = call i32 @sat_solver_addclause(ptr noundef %70, ptr noundef %71, ptr noundef %73)
  %75 = icmp ne i32 %74, 0
  br i1 %75, label %82, label %76

76:                                               ; preds = %31
  %77 = load ptr, ptr %3, align 8, !tbaa !3
  %78 = getelementptr inbounds nuw %struct.Mfs_Man_t_, ptr %77, i32 0, i32 24
  %79 = load ptr, ptr %78, align 8, !tbaa !24
  call void @sat_solver_delete(ptr noundef %79)
  %80 = load ptr, ptr %3, align 8, !tbaa !3
  %81 = getelementptr inbounds nuw %struct.Mfs_Man_t_, ptr %80, i32 0, i32 24
  store ptr null, ptr %81, align 8, !tbaa !24
  store i32 0, ptr %2, align 4
  store i32 1, ptr %9, align 4
  br label %91

82:                                               ; preds = %31
  br label %83

83:                                               ; preds = %82
  %84 = load i32, ptr %7, align 4, !tbaa !38
  %85 = add nsw i32 %84, 1
  store i32 %85, ptr %7, align 4, !tbaa !38
  br label %22, !llvm.loop !87

86:                                               ; preds = %22
  br label %87

87:                                               ; preds = %86
  %88 = load i32, ptr %6, align 4, !tbaa !38
  %89 = add nsw i32 %88, 1
  store i32 %89, ptr %6, align 4, !tbaa !38
  br label %10, !llvm.loop !88

90:                                               ; preds = %10
  store i32 1, ptr %2, align 4
  store i32 1, ptr %9, align 4
  br label %91

91:                                               ; preds = %90, %76
  call void @llvm.lifetime.end.p0(i64 8, ptr %8) #7
  call void @llvm.lifetime.end.p0(i64 4, ptr %7) #7
  call void @llvm.lifetime.end.p0(i64 4, ptr %6) #7
  call void @llvm.lifetime.end.p0(i64 8, ptr %5) #7
  call void @llvm.lifetime.end.p0(i64 8, ptr %4) #7
  %92 = load i32, ptr %2, align 4
  ret i32 %92
}