; Function Attrs: nounwind uwtable
define range(i32 0, 2) i32 @Abc_NtkAddOneHotness(ptr noundef captures(none) %0) local_unnamed_addr #0 {
  %2 = alloca [2 x i32], align 4
  call void @llvm.lifetime.start.p0(i64 8, ptr nonnull %2) #8
  %3 = getelementptr inbounds nuw i8, ptr %0, i64 152
  %4 = load ptr, ptr %3, align 8, !tbaa !45
  %5 = getelementptr inbounds nuw i8, ptr %4, i64 16
  %6 = load ptr, ptr %5, align 8, !tbaa !76
  %7 = getelementptr i8, ptr %6, i64 4
  %.val2026 = load i32, ptr %7, align 4, !tbaa !56
  %8 = icmp sgt i32 %.val2026, 0
  br i1 %8, label %.lr.ph28, label %.loopexit23

.lr.ph28:                                         ; preds = %1
  %9 = getelementptr inbounds nuw i8, ptr %0, i64 160
  %10 = getelementptr inbounds nuw i8, ptr %2, i64 4
  %11 = getelementptr inbounds nuw i8, ptr %0, i64 168
  %12 = getelementptr inbounds nuw i8, ptr %2, i64 8
  br label %14

.loopexit.loopexit:                               ; preds = %17
  %.pre42 = sext i32 %.val to i64
  br label %.loopexit

.loopexit:                                        ; preds = %14, %.loopexit.loopexit
  %.pre-phi = phi i64 [ %.pre42, %.loopexit.loopexit ], [ %15, %14 ]
  %.val20.pre41 = phi i32 [ %.val, %.loopexit.loopexit ], [ %.val20.pre, %14 ]
  %.pre39 = phi ptr [ %20, %.loopexit.loopexit ], [ %.pre, %14 ]
  %13 = icmp slt i64 %indvars.iv.next33, %.pre-phi
  %indvars.iv.next = add nuw nsw i64 %indvars.iv, 1
  br i1 %13, label %14, label %.loopexit23, !llvm.loop !77

14:                                               ; preds = %.lr.ph28, %.loopexit
  %.val20.pre = phi i32 [ %.val2026, %.lr.ph28 ], [ %.val20.pre41, %.loopexit ]
  %.pre = phi ptr [ %6, %.lr.ph28 ], [ %.pre39, %.loopexit ]
  %indvars.iv32 = phi i64 [ 0, %.lr.ph28 ], [ %indvars.iv.next33, %.loopexit ]
  %indvars.iv = phi i64 [ 1, %.lr.ph28 ], [ %indvars.iv.next, %.loopexit ]
  %indvars.iv.next33 = add nuw nsw i64 %indvars.iv32, 1
  %15 = sext i32 %.val20.pre to i64
  %16 = icmp slt i64 %indvars.iv.next33, %15
  br i1 %16, label %.lr.ph, label %.loopexit

17:                                               ; preds = %.lr.ph
  %indvars.iv.next30 = add nuw nsw i64 %indvars.iv29, 1
  %18 = load ptr, ptr %3, align 8, !tbaa !45
  %19 = getelementptr inbounds nuw i8, ptr %18, i64 16
  %20 = load ptr, ptr %19, align 8, !tbaa !76
  %21 = getelementptr i8, ptr %20, i64 4
  %.val = load i32, ptr %21, align 4, !tbaa !56
  %22 = trunc nuw i64 %indvars.iv.next30 to i32
  %23 = icmp sgt i32 %.val, %22
  br i1 %23, label %.lr.ph, label %.loopexit.loopexit, !llvm.loop !78

.lr.ph:                                           ; preds = %14, %17
  %indvars.iv29 = phi i64 [ %indvars.iv.next30, %17 ], [ %indvars.iv, %14 ]
  %24 = phi ptr [ %20, %17 ], [ %.pre, %14 ]
  %25 = getelementptr i8, ptr %24, i64 8
  %.val21.val = load ptr, ptr %25, align 8, !tbaa !59
  %26 = getelementptr inbounds nuw ptr, ptr %.val21.val, i64 %indvars.iv32
  %27 = load ptr, ptr %26, align 8, !tbaa !60
  %28 = getelementptr inbounds nuw ptr, ptr %.val21.val, i64 %indvars.iv29
  %29 = load ptr, ptr %28, align 8, !tbaa !60
  %30 = load ptr, ptr %9, align 8, !tbaa !61
  %31 = getelementptr inbounds nuw i8, ptr %30, i64 32
  %32 = load ptr, ptr %31, align 8, !tbaa !62
  %33 = getelementptr inbounds nuw i8, ptr %27, i64 36
  %34 = load i32, ptr %33, align 4, !tbaa !64
  %35 = sext i32 %34 to i64
  %36 = getelementptr inbounds i32, ptr %32, i64 %35
  %37 = load i32, ptr %36, align 4, !tbaa !42
  %38 = shl nsw i32 %37, 1
  %39 = or disjoint i32 %38, 1
  store i32 %39, ptr %2, align 4, !tbaa !42
  %40 = getelementptr inbounds nuw i8, ptr %29, i64 36
  %41 = load i32, ptr %40, align 4, !tbaa !64
  %42 = sext i32 %41 to i64
  %43 = getelementptr inbounds i32, ptr %32, i64 %42
  %44 = load i32, ptr %43, align 4, !tbaa !42
  %45 = shl nsw i32 %44, 1
  %46 = or disjoint i32 %45, 1
  store i32 %46, ptr %10, align 4, !tbaa !42
  %47 = load ptr, ptr %11, align 8, !tbaa !22
  %48 = call i32 @sat_solver_addclause(ptr noundef %47, ptr noundef nonnull %2, ptr noundef nonnull %12) #8
  %.not = icmp eq i32 %48, 0
  br i1 %.not, label %49, label %17

49:                                               ; preds = %.lr.ph
  %50 = load ptr, ptr %11, align 8, !tbaa !22
  call void @sat_solver_delete(ptr noundef %50) #8
  store ptr null, ptr %11, align 8, !tbaa !22
  br label %.loopexit23

.loopexit23:                                      ; preds = %.loopexit, %1, %49
  %.019 = phi i32 [ 0, %49 ], [ 1, %1 ], [ 1, %.loopexit ]
  call void @llvm.lifetime.end.p0(i64 8, ptr nonnull %2) #8
  ret i32 %.019
}